ccopy_reg
_reconstructor
p1
(cnltk.classify.naivebayes
NaiveBayesClassifier
p2
c__builtin__
object
p3
NtRp4
(dp5
S'_labels'
p6
(lp7
S'neutral'
p8
aS'pos'
p9
aS'neg'
p10
asS'_feature_probdist'
p11
(dp12
(g9
S'wordCount'
p13
tp14
g1
(cnltk.probability
ELEProbDist
p15
g3
NtRp16
(dp17
S'_gamma'
p18
F0.5
sS'_N'
p19
I1352
sS'_freqdist'
p20
g1
(cnltk.probability
FreqDist
p21
c__builtin__
dict
p22
(dp23
I2
I2
sI3
I6
sI4
I10
sI5
I41
sI6
I42
sI7
I55
sI8
I38
sI9
I58
sI10
I52
sI11
I55
sI12
I57
sI13
I56
sI14
I58
sI15
I50
sI16
I51
sI17
I53
sI18
I54
sI19
I41
sI20
I56
sI21
I38
sI22
I39
sI23
I37
sI24
I34
sI25
I35
sI26
I32
sI27
I29
sI28
I28
sI29
I21
sI30
I20
sI31
I20
sI32
I18
sI33
I9
sI34
I13
sI35
I16
sI36
I15
sI37
I4
sI38
I8
sI39
I10
sI40
I14
sI41
I7
sI42
I10
sI43
I5
sI44
I7
sI45
I7
sI46
I4
sI47
I5
sI48
I4
sI50
I4
sI51
I3
sI53
I1
sI55
I2
sI56
I3
sI57
I1
sI59
I2
sI61
I2
sI66
I1
sI67
I1
sI68
I2
sI72
I1
sI76
I2
sI82
I2
sI92
I1
stRp24
(dp25
g19
I1352
sS'_max_cache'
p26
NsS'_item_cache'
p27
NsS'_Nr_cache'
p28
NsbsS'_bins'
p29
I81
sS'_divisor'
p30
F1392.5
sbs(g8
g13
tp31
g1
(g15
g3
NtRp32
(dp33
g18
F0.5
sg19
I2173
sg20
g1
(g21
g22
(dp34
I0
I1
sI1
I4
sI2
I35
sI3
I38
sI4
I40
sI5
I54
sI6
I67
sI7
I61
sI8
I89
sI9
I80
sI10
I100
sI11
I82
sI12
I94
sI13
I86
sI14
I99
sI15
I98
sI16
I101
sI17
I82
sI18
I97
sI19
I91
sI20
I69
sI21
I54
sI22
I69
sI23
I45
sI24
I50
sI25
I45
sI26
I54
sI27
I43
sI28
I30
sI29
I19
sI30
I36
sI31
I23
sI32
I32
sI33
I17
sI34
I18
sI35
I7
sI36
I15
sI37
I20
sI38
I13
sI39
I13
sI40
I11
sI41
I8
sI42
I9
sI43
I9
sI44
I8
sI45
I8
sI46
I4
sI47
I4
sI48
I3
sI49
I5
sI50
I5
sI51
I1
sI52
I3
sI53
I3
sI54
I2
sI56
I2
sI57
I1
sI59
I1
sI60
I2
sI61
I1
sI62
I1
sI64
I1
sI65
I1
sI67
I2
sI68
I1
sI69
I1
sI71
I1
sI75
I1
sI83
I1
sI88
I1
sI111
I1
stRp35
(dp36
g19
I2173
sg26
Nsg27
Nsg28
Nsbsg29
I81
sg30
F2213.5
sbs(g10
S'charCount'
p37
tp38
g1
(g15
g3
NtRp39
(dp40
g18
F0.5
sg19
I744
sg20
g1
(g21
g22
(dp41
I4
I1
sI17
I1
sI18
I1
sI21
I1
sI22
I3
sI23
I3
sI24
I2
sI25
I2
sI26
I3
sI27
I3
sI28
I5
sI29
I1
sI30
I7
sI31
I1
sI32
I5
sI33
I3
sI34
I1
sI35
I1
sI36
I4
sI37
I5
sI38
I8
sI39
I2
sI40
I2
sI41
I4
sI42
I4
sI43
I4
sI44
I5
sI45
I5
sI46
I4
sI47
I4
sI48
I5
sI49
I10
sI50
I1
sI51
I11
sI52
I8
sI53
I8
sI54
I2
sI55
I9
sI56
I3
sI57
I5
sI58
I8
sI59
I3
sI60
I5
sI61
I4
sI62
I6
sI63
I5
sI64
I8
sI65
I5
sI66
I6
sI67
I7
sI68
I5
sI69
I8
sI70
I9
sI71
I9
sI72
I3
sI73
I5
sI74
I7
sI75
I8
sI76
I7
sI77
I3
sI78
I3
sI79
I8
sI80
I7
sI81
I9
sI82
I3
sI83
I11
sI84
I7
sI85
I8
sI86
I5
sI87
I3
sI88
I7
sI89
I4
sI90
I8
sI91
I8
sI92
I4
sI93
I5
sI94
I4
sI95
I9
sI96
I5
sI97
I6
sI98
I5
sI99
I5
sI100
I8
sI101
I3
sI102
I4
sI103
I1
sI104
I5
sI105
I7
sI106
I9
sI107
I4
sI108
I7
sI109
I7
sI110
I3
sI111
I3
sI112
I6
sI113
I3
sI114
I4
sI115
I8
sI116
I8
sI117
I5
sI118
I7
sI119
I6
sI120
I6
sI121
I4
sI122
I7
sI123
I2
sI124
I4
sI125
I2
sI126
I1
sI127
I7
sI128
I5
sI129
I3
sI130
I2
sI131
I6
sI132
I3
sI133
I2
sI134
I3
sI135
I3
sI136
I1
sI137
I2
sI138
I2
sI139
I2
sI140
I3
sI141
I3
sI142
I3
sI143
I2
sI144
I1
sI145
I2
sI147
I4
sI148
I3
sI149
I3
sI150
I4
sI151
I2
sI152
I2
sI153
I2
sI155
I1
sI156
I1
sI157
I2
sI158
I1
sI159
I1
sI160
I2
sI161
I3
sI162
I2
sI164
I2
sI165
I1
sI167
I5
sI168
I1
sI169
I1
sI170
I2
sI173
I3
sI174
I2
sI175
I1
sI176
I1
sI177
I4
sI178
I1
sI180
I1
sI181
I1
sI183
I2
sI184
I5
sI185
I1
sI186
I2
sI191
I4
sI192
I2
sI193
I1
sI194
I2
sI195
I2
sI196
I2
sI197
I5
sI198
I1
sI199
I1
sI200
I1
sI201
I1
sI204
I3
sI205
I1
sI206
I2
sI208
I1
sI211
I1
sI212
I1
sI213
I2
sI214
I1
sI217
I1
sI218
I2
sI219
I1
sI220
I1
sI221
I1
sI222
I1
sI223
I3
sI224
I1
sI226
I1
sI227
I1
sI228
I1
sI236
I1
sI244
I1
sI245
I1
sI256
I1
sI259
I1
sI260
I1
sI262
I2
sI263
I1
sI264
I1
sI265
I2
sI266
I1
sI270
I1
sI272
I1
sI282
I1
sI288
I1
sI294
I1
sI298
I1
sI306
I1
sI308
I1
sI309
I1
sI318
I1
sI328
I1
sI335
I1
sI366
I1
stRp42
(dp43
g19
I744
sg26
Nsg27
Nsg28
Nsbsg29
I299
sg30
F893.5
sbs(g9
g37
tp44
g1
(g15
g3
NtRp45
(dp46
g18
F0.5
sg19
I1352
sg20
g1
(g21
g22
(dp47
I6
I1
sI9
I1
sI10
I3
sI13
I1
sI14
I1
sI15
I6
sI16
I1
sI17
I2
sI18
I6
sI19
I5
sI20
I8
sI21
I3
sI22
I8
sI23
I8
sI24
I7
sI25
I9
sI26
I11
sI27
I9
sI28
I10
sI29
I12
sI30
I5
sI31
I13
sI32
I9
sI33
I9
sI34
I7
sI35
I14
sI36
I7
sI37
I8
sI38
I13
sI39
I10
sI40
I7
sI41
I8
sI42
I10
sI43
I12
sI44
I15
sI45
I13
sI46
I15
sI47
I7
sI48
I11
sI49
I10
sI50
I13
sI51
I16
sI52
I13
sI53
I5
sI54
I8
sI55
I13
sI56
I9
sI57
I21
sI58
I13
sI59
I10
sI60
I11
sI61
I19
sI62
I5
sI63
I13
sI64
I9
sI65
I6
sI66
I13
sI67
I14
sI68
I7
sI69
I14
sI70
I14
sI71
I11
sI72
I10
sI73
I12
sI74
I11
sI75
I9
sI76
I7
sI77
I12
sI78
I10
sI79
I11
sI80
I12
sI81
I16
sI82
I11
sI83
I10
sI84
I9
sI85
I10
sI86
I6
sI87
I10
sI88
I11
sI89
I11
sI90
I6
sI91
I4
sI92
I17
sI93
I15
sI94
I3
sI95
I13
sI96
I5
sI97
I10
sI98
I12
sI99
I5
sI100
I4
sI101
I9
sI102
I6
sI103
I6
sI104
I6
sI105
I17
sI106
I7
sI107
I16
sI108
I6
sI109
I8
sI110
I8
sI111
I12
sI112
I5
sI113
I5
sI114
I6
sI115
I3
sI116
I7
sI117
I10
sI118
I7
sI119
I6
sI120
I4
sI121
I8
sI122
I4
sI123
I8
sI124
I7
sI125
I8
sI126
I9
sI127
I4
sI128
I5
sI129
I8
sI130
I3
sI131
I10
sI132
I3
sI133
I5
sI134
I5
sI135
I9
sI136
I6
sI137
I6
sI138
I5
sI139
I6
sI140
I2
sI141
I8
sI142
I7
sI143
I3
sI144
I3
sI145
I3
sI146
I4
sI147
I3
sI148
I3
sI149
I5
sI150
I5
sI151
I2
sI152
I2
sI153
I5
sI154
I2
sI155
I5
sI157
I1
sI158
I2
sI160
I2
sI161
I2
sI162
I1
sI163
I5
sI164
I4
sI165
I6
sI166
I3
sI167
I5
sI168
I4
sI169
I7
sI170
I2
sI171
I3
sI172
I4
sI173
I3
sI174
I1
sI175
I1
sI176
I1
sI177
I1
sI178
I5
sI179
I4
sI180
I1
sI181
I2
sI182
I1
sI183
I2
sI184
I2
sI186
I1
sI187
I1
sI189
I2
sI190
I1
sI191
I1
sI193
I3
sI194
I4
sI195
I1
sI196
I1
sI197
I1
sI198
I1
sI199
I3
sI201
I3
sI202
I1
sI204
I2
sI206
I1
sI207
I2
sI208
I1
sI209
I2
sI211
I1
sI212
I1
sI214
I1
sI216
I1
sI218
I1
sI219
I3
sI222
I1
sI223
I2
sI224
I1
sI225
I1
sI226
I2
sI227
I1
sI228
I1
sI229
I2
sI230
I2
sI231
I2
sI232
I1
sI234
I2
sI237
I1
sI241
I1
sI242
I1
sI243
I2
sI244
I1
sI245
I1
sI248
I1
sI253
I1
sI255
I1
sI260
I2
sI266
I1
sI277
I1
sI280
I1
sI281
I1
sI287
I1
sI291
I1
sI295
I1
sI312
I1
sI318
I1
sI319
I1
sI323
I1
sI334
I1
sI335
I1
sI338
I1
sI343
I1
sI350
I1
sI404
I1
sI471
I1
stRp48
(dp49
g19
I1352
sg26
Nsg27
Nsg28
Nsbsg29
I299
sg30
F1501.5
sbs(g8
g37
tp50
g1
(g15
g3
NtRp51
(dp52
g18
F0.5
sg19
I2173
sg20
g1
(g21
g22
(dp53
I0
I1
sI2
I9
sI3
I12
sI4
I2
sI5
I4
sI6
I2
sI7
I6
sI8
I2
sI9
I2
sI10
I10
sI11
I10
sI12
I7
sI13
I15
sI14
I10
sI15
I10
sI16
I14
sI17
I7
sI18
I9
sI19
I14
sI20
I8
sI21
I14
sI22
I9
sI23
I6
sI24
I6
sI25
I12
sI26
I10
sI27
I10
sI28
I13
sI29
I13
sI30
I12
sI31
I12
sI32
I9
sI33
I23
sI34
I17
sI35
I20
sI36
I26
sI37
I14
sI38
I9
sI39
I13
sI40
I15
sI41
I15
sI42
I22
sI43
I18
sI44
I20
sI45
I19
sI46
I17
sI47
I22
sI48
I21
sI49
I19
sI50
I20
sI51
I19
sI52
I14
sI53
I22
sI54
I23
sI55
I18
sI56
I12
sI57
I16
sI58
I12
sI59
I24
sI60
I20
sI61
I13
sI62
I23
sI63
I19
sI64
I24
sI65
I14
sI66
I20
sI67
I18
sI68
I23
sI69
I19
sI70
I15
sI71
I15
sI72
I22
sI73
I24
sI74
I15
sI75
I23
sI76
I26
sI77
I16
sI78
I30
sI79
I21
sI80
I16
sI81
I15
sI82
I22
sI83
I20
sI84
I18
sI85
I18
sI86
I13
sI87
I19
sI88
I13
sI89
I16
sI90
I22
sI91
I13
sI92
I13
sI93
I12
sI94
I10
sI95
I11
sI96
I12
sI97
I17
sI98
I12
sI99
I18
sI100
I16
sI101
I19
sI102
I12
sI103
I13
sI104
I14
sI105
I9
sI106
I10
sI107
I16
sI108
I12
sI109
I17
sI110
I17
sI111
I10
sI112
I11
sI113
I9
sI114
I5
sI115
I10
sI116
I7
sI117
I5
sI118
I10
sI119
I9
sI120
I3
sI121
I11
sI122
I9
sI123
I13
sI124
I8
sI125
I8
sI126
I11
sI127
I10
sI128
I10
sI129
I7
sI130
I5
sI131
I8
sI132
I5
sI133
I7
sI134
I13
sI135
I9
sI136
I6
sI137
I7
sI138
I10
sI139
I10
sI140
I8
sI141
I5
sI142
I6
sI143
I5
sI144
I5
sI145
I11
sI146
I7
sI147
I7
sI148
I6
sI149
I3
sI150
I1
sI151
I6
sI152
I2
sI153
I3
sI154
I4
sI155
I5
sI156
I7
sI157
I7
sI158
I3
sI159
I11
sI160
I1
sI161
I3
sI162
I1
sI163
I3
sI164
I2
sI165
I1
sI166
I1
sI167
I4
sI168
I7
sI169
I4
sI170
I4
sI171
I3
sI172
I3
sI173
I1
sI174
I3
sI175
I3
sI176
I2
sI177
I2
sI178
I3
sI179
I4
sI182
I4
sI184
I4
sI185
I2
sI186
I3
sI187
I2
sI188
I4
sI189
I4
sI190
I3
sI191
I4
sI192
I1
sI193
I2
sI196
I4
sI198
I3
sI199
I4
sI200
I4
sI201
I3
sI202
I1
sI203
I3
sI204
I3
sI207
I1
sI210
I1
sI212
I5
sI213
I1
sI214
I1
sI216
I1
sI217
I3
sI219
I3
sI220
I1
sI221
I3
sI222
I1
sI223
I2
sI225
I2
sI226
I1
sI227
I1
sI228
I1
sI229
I3
sI230
I1
sI231
I2
sI240
I1
sI242
I1
sI247
I1
sI249
I1
sI250
I1
sI251
I1
sI253
I1
sI254
I1
sI255
I1
sI257
I1
sI261
I1
sI262
I1
sI266
I1
sI267
I1
sI277
I2
sI278
I1
sI280
I1
sI281
I1
sI283
I1
sI291
I2
sI521
I1
sI304
I1
sI313
I1
sI316
I1
sI326
I1
sI349
I3
sI356
I1
sI378
I1
sI413
I1
stRp54
(dp55
g19
I2173
sg26
Nsg27
Nsg28
Nsbsg29
I299
sg30
F2322.5
sbs(g10
g13
tp56
g1
(g15
g3
NtRp57
(dp58
g18
F0.5
sg19
I744
sg20
g1
(g21
g22
(dp59
I2
I1
sI3
I1
sI4
I2
sI5
I5
sI6
I19
sI7
I17
sI8
I16
sI9
I21
sI10
I32
sI11
I28
sI12
I26
sI13
I24
sI14
I28
sI15
I31
sI16
I32
sI17
I31
sI18
I27
sI19
I31
sI20
I25
sI21
I29
sI22
I25
sI23
I27
sI24
I30
sI25
I12
sI26
I16
sI27
I22
sI28
I20
sI29
I18
sI30
I13
sI31
I12
sI32
I12
sI33
I6
sI34
I8
sI35
I8
sI36
I9
sI37
I6
sI38
I5
sI39
I7
sI40
I3
sI41
I6
sI42
I5
sI43
I4
sI44
I3
sI45
I2
sI46
I3
sI47
I1
sI48
I3
sI49
I4
sI50
I4
sI51
I5
sI52
I2
sI53
I2
sI54
I2
sI55
I1
sI57
I1
sI58
I1
sI59
I1
sI60
I2
sI61
I1
sI63
I1
sI65
I2
sI67
I1
sI76
I1
sI77
I1
stRp60
(dp61
g19
I744
sg26
Nsg27
Nsg28
Nsbsg29
I81
sg30
F784.5
sbssS'_label_probdist'
p62
g1
(g15
g3
NtRp63
(dp64
g18
F0.5
sg19
I4269
sg20
g1
(g21
g22
(dp65
g10
I744
sg8
I2173
sg9
I1352
stRp66
(dp67
g19
I4269
sg26
Nsg27
(lp68
(g8
I2173
tp69
a(g9
I1352
tp70
a(g10
I744
tp71
asg28
Nsbsg29
I3
sg30
F4270.5
sbsb.